; Function Attrs: nounwind uwtable
define ptr @l_Lean_Meta_visitLet_visit___rarg___lambda__3___boxed(ptr noundef %0, ptr noundef %1, ptr noundef %2, ptr noundef %3, ptr noundef %4, ptr noundef %5, ptr noundef %6, ptr noundef %7, ptr noundef %8, ptr noundef %9) #0 {
  %11 = tail call ptr @l_Lean_Meta_visitLet_visit___rarg___lambda__3(ptr noundef %0, ptr noundef %1, ptr noundef %2, ptr noundef %3, ptr noundef %4, ptr noundef %5, ptr noundef %6, ptr noundef %7, ptr noundef %8, ptr poison)
  %12 = ptrtoint ptr %9 to i64
  %13 = and i64 %12, 1
  %.not = icmp eq i64 %13, 0
  br i1 %.not, label %14, label %lean_dec.exit

14:                                               ; preds = %10
  %15 = load i32, ptr %9, align 4, !tbaa !4
  %16 = icmp sgt i32 %15, 1
  br i1 %16, label %17, label %19, !prof !13

17:                                               ; preds = %14
  %18 = add nsw i32 %15, -1
  store i32 %18, ptr %9, align 4, !tbaa !4
  br label %lean_dec.exit

19:                                               ; preds = %14
  %.not.i = icmp eq i32 %15, 0
  br i1 %.not.i, label %lean_dec.exit, label %20

20:                                               ; preds = %19
  tail call void @lean_dec_ref_cold(ptr noundef nonnull %9) #4
  br label %lean_dec.exit

lean_dec.exit:                                    ; preds = %20, %19, %17, %10
  ret ptr %11
}